; Function Attrs: nounwind uwtable
define hidden i32 @mbedtls_ssl_tls13_derive_secret(i32 noundef %0, ptr noundef %1, i64 noundef %2, ptr noundef readonly captures(none) %3, i64 noundef %4, ptr noundef %5, i64 noundef %6, i32 noundef %7, ptr noundef %8, i64 noundef %9) local_unnamed_addr #0 {
  %11 = alloca i64, align 8
  %12 = alloca [64 x i8], align 16
  store i64 %6, ptr %11, align 8, !tbaa !10
  call void @llvm.lifetime.start.p0(i64 64, ptr nonnull %12) #8
  %13 = icmp eq i32 %7, 0
  br i1 %13, label %14, label %26

14:                                               ; preds = %10
  %trunc = trunc i32 %0 to i8
  %switch.tableidx = add i8 %trunc, -3
  %15 = icmp ult i8 %switch.tableidx, 16
  br i1 %15, label %switch.hole_check, label %16

16:                                               ; preds = %switch.hole_check, %14
  %17 = and i32 %0, 255
  %18 = icmp eq i32 %17, 19
  %19 = select i1 %18, i64 64, i64 0
  br label %21

switch.hole_check:                                ; preds = %14
  %switch.maskindex = zext nneg i8 %switch.tableidx to i16
  %switch.shifted = lshr i16 -6169, %switch.maskindex
  %switch.lobit = trunc i16 %switch.shifted to i1
  br i1 %switch.lobit, label %switch.lookup, label %16

switch.lookup:                                    ; preds = %switch.hole_check
  %20 = zext nneg i8 %switch.tableidx to i64
  %switch.gep = getelementptr inbounds nuw [16 x i64], ptr @switch.table.mbedtls_ssl_tls13_compute_application_transform.13, i64 0, i64 %20
  %switch.load = load i64, ptr %switch.gep, align 8
  br label %21

21:                                               ; preds = %switch.lookup, %16
  %22 = phi i64 [ %19, %16 ], [ %switch.load, %switch.lookup ]
  %23 = call i32 @psa_hash_compute(i32 noundef %0, ptr noundef %5, i64 noundef %6, ptr noundef nonnull %12, i64 noundef %22, ptr noundef nonnull %11) #8
  %.not = icmp eq i32 %23, 0
  br i1 %.not, label %..thread_crit_edge, label %24

..thread_crit_edge:                               ; preds = %21
  %.pre = load i64, ptr %11, align 8, !tbaa !10
  br label %.thread

24:                                               ; preds = %21
  %25 = call i32 @psa_status_to_mbedtls(i32 noundef %23, ptr noundef nonnull @psa_to_ssl_errors, i64 noundef 7, ptr noundef nonnull @psa_generic_status_to_mbedtls) #8
  br label %31

26:                                               ; preds = %10
  %27 = icmp ugt i64 %6, 64
  br i1 %27, label %31, label %28

28:                                               ; preds = %26
  call void @llvm.memcpy.p0.p0.i64(ptr nonnull align 16 %12, ptr align 1 %5, i64 %6, i1 false)
  br label %.thread

.thread:                                          ; preds = %..thread_crit_edge, %28
  %29 = phi i64 [ %.pre, %..thread_crit_edge ], [ %6, %28 ]
  %30 = call i32 @mbedtls_ssl_tls13_hkdf_expand_label(i32 noundef %0, ptr noundef %1, i64 noundef %2, ptr noundef %3, i64 noundef %4, ptr noundef nonnull %12, i64 noundef %29, ptr noundef %8, i64 noundef %9)
  br label %31

31:                                               ; preds = %24, %26, %.thread
  %.1 = phi i32 [ %30, %.thread ], [ %25, %24 ], [ -27648, %26 ]
  call void @llvm.lifetime.end.p0(i64 64, ptr nonnull %12) #8
  ret i32 %.1
}